target datalayout = "e-m:e-p270:32:32-p271:32:32-p272:64:64-i64:64-i128:128-f80:128-n8:16:32:64-S128"
target triple = "x86_64-pc-linux-gnu"

%struct.mz_zip_archive_tag = type { i64, i64, i32, i32, i32, ptr, ptr, ptr, ptr, ptr, ptr, ptr, ptr }
%struct.mz_zip_internal_state_tag = type { %struct.mz_zip_array, %struct.mz_zip_array, %struct.mz_zip_array, ptr, ptr, i64, i64 }
%struct.mz_zip_array = type { ptr, i64, i64, i32 }

; Function Attrs: mustprogress nounwind uwtable
define i32 @mz_zip_reader_is_file_a_directory(ptr noundef %0, i32 noundef %1) #4 {
  %3 = alloca ptr, align 8
  %4 = alloca ptr, align 8
  %5 = alloca i32, align 4
  %6 = alloca i32, align 4
  %7 = alloca ptr, align 8
  %8 = alloca i32, align 4
  %9 = alloca i32, align 4
  %10 = alloca i32, align 4
  %11 = alloca ptr, align 8
  store ptr %0, ptr %7, align 8
  store i32 %1, ptr %8, align 4
  %12 = load ptr, ptr %7, align 8
  %13 = load i32, ptr %8, align 4
  store ptr %12, ptr %4, align 8
  store i32 %13, ptr %5, align 4
  %14 = load ptr, ptr %4, align 8
  %15 = icmp ne ptr %14, null
  br i1 %15, label %16, label %32

16:                                               ; preds = %2
  %17 = load ptr, ptr %4, align 8
  %18 = getelementptr inbounds %struct.mz_zip_archive_tag, ptr %17, i32 0, i32 12
  %19 = load ptr, ptr %18, align 8
  %20 = icmp ne ptr %19, null
  br i1 %20, label %21, label %32

21:                                               ; preds = %16
  %22 = load i32, ptr %5, align 4
  %23 = load ptr, ptr %4, align 8
  %24 = getelementptr inbounds %struct.mz_zip_archive_tag, ptr %23, i32 0, i32 2
  %25 = load i32, ptr %24, align 8
  %26 = icmp uge i32 %22, %25
  br i1 %26, label %32, label %27

27:                                               ; preds = %21
  %28 = load ptr, ptr %4, align 8
  %29 = getelementptr inbounds %struct.mz_zip_archive_tag, ptr %28, i32 0, i32 3
  %30 = load i32, ptr %29, align 4
  %31 = icmp ne i32 %30, 1
  br i1 %31, label %32, label %33

32:                                               ; preds = %27, %21, %16, %2
  store ptr null, ptr %3, align 8
  br label %49

33:                                               ; preds = %27
  %34 = load ptr, ptr %4, align 8
  %35 = getelementptr inbounds %struct.mz_zip_archive_tag, ptr %34, i32 0, i32 12
  %36 = load ptr, ptr %35, align 8
  %37 = load ptr, ptr %36, align 8
  %38 = load ptr, ptr %4, align 8
  %39 = getelementptr inbounds %struct.mz_zip_archive_tag, ptr %38, i32 0, i32 12
  %40 = load ptr, ptr %39, align 8
  %41 = getelementptr inbounds %struct.mz_zip_internal_state_tag, ptr %40, i32 0, i32 1
  %42 = load ptr, ptr %41, align 8
  %43 = load i32, ptr %5, align 4
  %44 = zext i32 %43 to i64
  %45 = getelementptr inbounds i32, ptr %42, i64 %44
  %46 = load i32, ptr %45, align 4
  %47 = zext i32 %46 to i64
  %48 = getelementptr inbounds i8, ptr %37, i64 %47
  store ptr %48, ptr %3, align 8
  br label %49

49:                                               ; preds = %33, %32
  %50 = load ptr, ptr %3, align 8
  store ptr %50, ptr %11, align 8
  %51 = load ptr, ptr %11, align 8
  %52 = icmp ne ptr %51, null
  br i1 %52, label %54, label %53

53:                                               ; preds = %49
  store i32 0, ptr %6, align 4
  br label %82

54:                                               ; preds = %49
  %55 = load ptr, ptr %11, align 8
  %56 = getelementptr inbounds i8, ptr %55, i64 28
  %57 = load i16, ptr %56, align 2
  %58 = zext i16 %57 to i32
  store i32 %58, ptr %9, align 4
  %59 = load i32, ptr %9, align 4
  %60 = icmp ne i32 %59, 0
  br i1 %60, label %61, label %73

61:                                               ; preds = %54
  %62 = load ptr, ptr %11, align 8
  %63 = getelementptr inbounds i8, ptr %62, i64 46
  %64 = load i32, ptr %9, align 4
  %65 = zext i32 %64 to i64
  %66 = getelementptr inbounds i8, ptr %63, i64 %65
  %67 = getelementptr inbounds i8, ptr %66, i64 -1
  %68 = load i8, ptr %67, align 1
  %69 = zext i8 %68 to i32
  %70 = icmp eq i32 %69, 47
  br i1 %70, label %71, label %72

71:                                               ; preds = %61
  store i32 1, ptr %6, align 4
  br label %82

72:                                               ; preds = %61
  br label %73

73:                                               ; preds = %72, %54
  %74 = load ptr, ptr %11, align 8
  %75 = getelementptr inbounds i8, ptr %74, i64 38
  %76 = load i32, ptr %75, align 4
  store i32 %76, ptr %10, align 4
  %77 = load i32, ptr %10, align 4
  %78 = and i32 %77, 16
  %79 = icmp ne i32 %78, 0
  br i1 %79, label %80, label %81

80:                                               ; preds = %73
  store i32 1, ptr %6, align 4
  br label %82

81:                                               ; preds = %73
  store i32 0, ptr %6, align 4
  br label %82

82:                                               ; preds = %81, %80, %71, %53
  %83 = load i32, ptr %6, align 4
  ret i32 %83
}