; Function Attrs: mustprogress nofree norecurse nosync nounwind willreturn memory(read, inaccessiblemem: none) uwtable
define i32 @mz_zip_reader_is_file_a_directory(ptr noundef readonly %0, i32 noundef %1) local_unnamed_addr #12 {
  %.not = icmp eq ptr %0, null
  br i1 %.not, label %.thread, label %3

3:                                                ; preds = %2
  %4 = getelementptr inbounds i8, ptr %0, i64 88
  %5 = load ptr, ptr %4, align 8
  %.not23 = icmp eq ptr %5, null
  br i1 %.not23, label %.thread, label %6

6:                                                ; preds = %3
  %7 = getelementptr inbounds i8, ptr %0, i64 16
  %8 = load i32, ptr %7, align 8
  %.not24 = icmp ugt i32 %8, %1
  br i1 %.not24, label %9, label %.thread

9:                                                ; preds = %6
  %10 = getelementptr inbounds i8, ptr %0, i64 20
  %11 = load i32, ptr %10, align 4
  %.not25 = icmp eq i32 %11, 1
  br i1 %.not25, label %12, label %.thread

12:                                               ; preds = %9
  %13 = load ptr, ptr %5, align 8
  %14 = getelementptr inbounds i8, ptr %5, i64 32
  %15 = load ptr, ptr %14, align 8
  %16 = zext i32 %1 to i64
  %17 = getelementptr inbounds i32, ptr %15, i64 %16
  %18 = load i32, ptr %17, align 4
  %19 = zext i32 %18 to i64
  %20 = getelementptr inbounds i8, ptr %13, i64 %19
  %.not26 = icmp eq ptr %13, null
  br i1 %.not26, label %.thread, label %21

21:                                               ; preds = %12
  %22 = getelementptr inbounds i8, ptr %20, i64 28
  %23 = load i16, ptr %22, align 2
  %.not27 = icmp eq i16 %23, 0
  br i1 %.not27, label %31, label %24

24:                                               ; preds = %21
  %25 = getelementptr inbounds i8, ptr %20, i64 46
  %26 = zext i16 %23 to i64
  %27 = getelementptr inbounds i8, ptr %25, i64 %26
  %28 = getelementptr inbounds i8, ptr %27, i64 -1
  %29 = load i8, ptr %28, align 1
  %30 = icmp eq i8 %29, 47
  br i1 %30, label %.thread, label %31

31:                                               ; preds = %24, %21
  %32 = getelementptr inbounds i8, ptr %20, i64 38
  %33 = load i32, ptr %32, align 4
  %34 = lshr i32 %33, 4
  %.lobit = and i32 %34, 1
  br label %.thread

.thread:                                          ; preds = %2, %3, %6, %9, %31, %24, %12
  %.018 = phi i32 [ 0, %12 ], [ 1, %24 ], [ %.lobit, %31 ], [ 0, %9 ], [ 0, %6 ], [ 0, %3 ], [ 0, %2 ]
  ret i32 %.018
}